; Function Attrs: mustprogress uwtable
define hidden void @_ZN10arith_util15mk_mul_simplifyERK10ref_vectorI4expr11ast_managerE(ptr dead_on_unwind noalias writable sret(%class.obj_ref) align 8 initializes((0, 16)) %0, ptr noundef nonnull align 8 captures(none) dereferenceable(16) %1, ptr noundef nonnull readonly align 8 captures(none) dereferenceable(16) %2) local_unnamed_addr #3 align 2 {
  %4 = getelementptr inbounds nuw i8, ptr %2, i64 8
  %5 = load ptr, ptr %4, align 8, !tbaa !232
  %6 = icmp eq ptr %5, null
  br i1 %6, label %_ZNK15ref_vector_coreI4expr19ref_manager_wrapperIS0_11ast_managerEE4sizeEv.exit, label %7

7:                                                ; preds = %3
  %8 = getelementptr inbounds i8, ptr %5, i64 -4
  %9 = load i32, ptr %8, align 4, !tbaa !40
  br label %_ZNK15ref_vector_coreI4expr19ref_manager_wrapperIS0_11ast_managerEE4sizeEv.exit

_ZNK15ref_vector_coreI4expr19ref_manager_wrapperIS0_11ast_managerEE4sizeEv.exit: ; preds = %3, %7
  %.0.i.i = phi i32 [ %9, %7 ], [ 0, %3 ]
  tail call void @_ZN10arith_util15mk_mul_simplifyEjPKP4expr(ptr dead_on_unwind writable sret(%class.obj_ref) align 8 %0, ptr noundef nonnull align 8 dereferenceable(16) %1, i32 noundef %.0.i.i, ptr noundef %5)
  ret void
}